(dp0
S'temp5_7'
p1
(lp2
(isymboltable
Integer
p3
(dp4
S'name'
p5
S'int'
p6
sbaI01
asS'temp4_7'
p7
(lp8
(isymboltable
String
p9
(dp10
g5
S'str'
p11
sbaI01
asS'n_2'
p12
(lp13
(isymboltable
Integer
p14
(dp15
g5
g6
sbaI00
asS'temp3_5'
p16
(lp17
(isymboltable
Integer
p18
(dp19
g5
g6
sbaI01
asS'temp2_4'
p20
(lp21
g18
aI01
asS'i_3'
p22
(lp23
g18
aI00
asS'temp1_4'
p24
(lp25
(isymboltable
Integer
p26
(dp27
g5
g6
sbaI01
asS'ans_3'
p28
(lp29
g18
aI00
as.