(dp0
S'temp5_4'
p1
(lp2
(isymboltable
Integer
p3
(dp4
S'name'
p5
S'int'
p6
sbaI01
asS'a_3'
p7
(lp8
g3
aI00
asS'temp4_4'
p9
(lp10
(isymboltable
Integer
p11
(dp12
g5
g6
sbaI01
asS'temp8_7'
p13
(lp14
(isymboltable
Integer
p15
(dp16
g5
g6
sbaI01
asS'n_2'
p17
(lp18
(isymboltable
Integer
p19
(dp20
g5
g6
sbaI00
asS'temp3_4'
p21
(lp22
(isymboltable
Integer
p23
(dp24
g5
g6
sbaI01
asS'temp7_7'
p25
(lp26
(isymboltable
String
p27
(dp28
g5
S'str'
p29
sbaI01
asS't_3'
p30
(lp31
g3
aI00
asS'temp1_3'
p32
(lp33
(isymboltable
Integer
p34
(dp35
g5
g6
sbaI01
asS'b_3'
p36
(lp37
g3
aI00
asS'i_3'
p38
(lp39
g3
aI00
asS'temp2_3'
p40
(lp41
(isymboltable
Integer
p42
(dp43
g5
g6
sbaI01
asS'temp6_5'
p44
(lp45
g3
aI01
as.