(dp0
S't_3'
p1
(lp2
(isymboltable
Struct
p3
(dp4
S'fields'
p5
(lp6
S'key'
p7
aS'next'
p8
asS'n_fields'
p9
I2
sS'size'
p10
I12
sS'name'
p11
S'struct'
p12
sS'field_types'
p13
(lp14
(isymboltable
Integer
p15
(dp16
g11
S'int'
p17
sba(isymboltable
Pointer
p18
(dp19
S'base_type'
p20
Nsg11
S'pointer'
p21
sbasbaI00
asS's_3'
p22
(lp23
g3
aI00
asS'temp1_3'
p24
(lp25
(isymboltable
Integer
p26
(dp27
g11
g17
sbaI01
asS'temp2_3'
p28
(lp29
(isymboltable
Integer
p30
(dp31
g11
g17
sbaI01
as.