(dp0
S'parent_3'
p1
(lp2
(isymboltable
Struct
p3
(dp4
S'fields'
p5
(lp6
S'key'
p7
aS'Left'
p8
aS'Right'
p9
asS'n_fields'
p10
I3
sS'size'
p11
I20
sS'name'
p12
S'struct'
p13
sS'field_types'
p14
(lp15
(isymboltable
Integer
p16
(dp17
g12
S'int'
p18
sba(isymboltable
Pointer
p19
(dp20
S'base_type'
p21
Nsg12
S'pointer'
p22
sba(isymboltable
Pointer
p23
(dp24
g21
Nsg12
g22
sbasbaI00
asS'temp2_3'
p25
(lp26
(isymboltable
Integer
p27
(dp28
g12
g18
sbaI01
asS'temp3_3'
p29
(lp30
(isymboltable
Integer
p31
(dp32
g12
g18
sbaI01
asS'temp1_3'
p33
(lp34
(isymboltable
Integer
p35
(dp36
g12
g18
sbaI01
asS'lchild_3'
p37
(lp38
g3
aI00
asS'rchild_3'
p39
(lp40
g3
aI00
as.