(dp0
S'temp1_3'
p1
(lp2
(isymboltable
Integer
p3
(dp4
S'name'
p5
S'int'
p6
sbaI01
asS'a_2'
p7
(lp8
g3
aI00
asS'temp4_10'
p9
(lp10
(isymboltable
String
p11
(dp12
g5
S'str'
p13
sbaI01
asS'temp7_10'
p14
(lp15
(isymboltable
Integer
p16
(dp17
g5
g6
sbaI01
asS'x_10'
p18
(lp19
(isymboltable
Integer
p20
(dp21
g5
g6
sbaI00
asS'temp6_10'
p22
(lp23
(isymboltable
Integer
p24
(dp25
g5
g6
sbaI01
asS'temp5_10'
p26
(lp27
g20
aI01
asS'z_10'
p28
(lp29
g16
aI00
asS'c_2'
p30
(lp31
g3
aI00
asS'temp3_3'
p32
(lp33
g3
aI01
asS'y_10'
p34
(lp35
g24
aI00
asS'b_2'
p36
(lp37
g3
aI00
asS'temp2_4'
p38
(lp39
g3
aI01
as.