(dp0
S'temp5_4'
p1
(isymboltable
String
p2
(dp3
S'name'
p4
S'str'
p5
sbsS'a_3'
p6
(isymboltable
Integer
p7
(dp8
g4
S'int'
p9
sbsS'a_2'
p10
(isymboltable
Integer
p11
(dp12
g4
g9
sbsS'a_6'
p13
(isymboltable
Integer
p14
(dp15
g4
g9
sbsS'temp4_4'
p16
(isymboltable
Integer
p17
(dp18
g4
g9
sbsS'temp13_6'
p19
g14
sS'temp12_6'
p20
(isymboltable
String
p21
(dp22
g4
g5
sbsS'temp11_3'
p23
(isymboltable
String
p24
(dp25
g4
g5
sbsS'temp3_3'
p26
g7
sS'temp7_4'
p27
(isymboltable
Integer
p28
(dp29
g4
g9
sbsS'temp1_3'
p30
g7
sS'temp8_4'
p31
(isymboltable
String
p32
(dp33
g4
g5
sbsS'temp2_3'
p34
(isymboltable
Integer
p35
(dp36
g4
g9
sbsS'temp6_4'
p37
(isymboltable
Integer
p38
(dp39
g4
g9
sbs.